; Function Attrs: mustprogress uwtable
define void @_ZN10open_spiel4file4File12ReadContentsB5cxx11Ev(ptr dead_on_unwind noalias writable sret(%"class.std::__cxx11::basic_string") align 8 %0, ptr nocapture noundef nonnull readonly align 8 dereferenceable(8) %1) local_unnamed_addr #3 align 2 {
  %3 = load ptr, ptr %1, align 8
  %4 = tail call i32 @fseek(ptr noundef %3, i64 noundef 0, i32 noundef 0)
  %5 = load ptr, ptr %1, align 8
  %6 = tail call i64 @ftell(ptr noundef %5)
  %7 = load ptr, ptr %1, align 8
  %8 = tail call i32 @fseek(ptr noundef %7, i64 noundef 0, i32 noundef 2)
  %9 = load ptr, ptr %1, align 8
  %10 = tail call i64 @ftell(ptr noundef %9)
  %11 = load ptr, ptr %1, align 8
  %12 = tail call i32 @fseek(ptr noundef %11, i64 noundef %6, i32 noundef 0)
  tail call void @_ZN10open_spiel4file4File4ReadB5cxx11El(ptr dead_on_unwind writable sret(%"class.std::__cxx11::basic_string") align 8 %0, ptr noundef nonnull align 8 dereferenceable(8) %1, i64 noundef %10)
  ret void
}